; ModuleID = '34/320.c'
source_filename = "34/320.c"
target datalayout = "e-m:e-p270:32:32-p271:32:32-p272:64:64-i64:64-f80:128-n8:16:32:64-S128"
target triple = "x86_64-pc-linux-gnu"

@.str = private unnamed_addr constant [3 x i8] c"%d\00", align 1
@.str.1 = private unnamed_addr constant [4 x i8] c"End\00", align 1
@.str.2 = private unnamed_addr constant [9 x i8] c"%d/2=%d\0A\00", align 1
@.str.3 = private unnamed_addr constant [11 x i8] c"%d*3+1=%d\0A\00", align 1

; Function Attrs: noinline nounwind uwtable
define dso_local i32 @main() #0 {
  %1 = alloca i32, align 4
  %2 = alloca i32, align 4
  %3 = alloca i32, align 4
  %4 = alloca i32, align 4
  %5 = alloca i32, align 4
  store i32 0, i32* %1, align 4
  %6 = call i32 (i8*, ...) @__isoc99_scanf(i8* getelementptr inbounds ([3 x i8], [3 x i8]* @.str, i64 0, i64 0), i32* %2)
  %7 = load i32, i32* %2, align 4
  %8 = srem i32 %7, 2
  store i32 %8, i32* %3, align 4
  %9 = load i32, i32* %2, align 4
  %10 = mul nsw i32 3, %9
  %11 = add nsw i32 %10, 1
  store i32 %11, i32* %4, align 4
  %12 = load i32, i32* %2, align 4
  %13 = sdiv i32 %12, 2
  store i32 %13, i32* %5, align 4
  %14 = load i32, i32* %2, align 4
  %15 = icmp eq i32 %14, 1
  br i1 %15, label %16, label %18

16:                                               ; preds = %0
  %17 = call i32 (i8*, ...) @printf(i8* getelementptr inbounds ([4 x i8], [4 x i8]* @.str.1, i64 0, i64 0))
  br label %62

18:                                               ; preds = %0
  br label %19

19:                                               ; preds = %59, %18
  %20 = load i32, i32* %2, align 4
  %21 = icmp ne i32 %20, 1
  br i1 %21, label %22, label %60

22:                                               ; preds = %19
  br label %23

23:                                               ; preds = %31, %22
  %24 = load i32, i32* %3, align 4
  %25 = icmp eq i32 %24, 0
  br i1 %25, label %26, label %29

26:                                               ; preds = %23
  %27 = load i32, i32* %2, align 4
  %28 = icmp ne i32 %27, 1
  br label %29

29:                                               ; preds = %26, %23
  %30 = phi i1 [ false, %23 ], [ %28, %26 ]
  br i1 %30, label %31, label %40

31:                                               ; preds = %29
  %32 = load i32, i32* %2, align 4
  %33 = sdiv i32 %32, 2
  store i32 %33, i32* %5, align 4
  %34 = load i32, i32* %2, align 4
  %35 = load i32, i32* %5, align 4
  %36 = call i32 (i8*, ...) @printf(i8* getelementptr inbounds ([9 x i8], [9 x i8]* @.str.2, i64 0, i64 0), i32 %34, i32 %35)
  %37 = load i32, i32* %5, align 4
  store i32 %37, i32* %2, align 4
  %38 = load i32, i32* %2, align 4
  %39 = srem i32 %38, 2
  store i32 %39, i32* %3, align 4
  br label %23

40:                                               ; preds = %29
  br label %41

41:                                               ; preds = %49, %40
  %42 = load i32, i32* %3, align 4
  %43 = icmp eq i32 %42, 1
  br i1 %43, label %44, label %47

44:                                               ; preds = %41
  %45 = load i32, i32* %2, align 4
  %46 = icmp ne i32 %45, 1
  br label %47

47:                                               ; preds = %44, %41
  %48 = phi i1 [ false, %41 ], [ %46, %44 ]
  br i1 %48, label %49, label %59

49:                                               ; preds = %47
  %50 = load i32, i32* %2, align 4
  %51 = mul nsw i32 3, %50
  %52 = add nsw i32 %51, 1
  store i32 %52, i32* %4, align 4
  %53 = load i32, i32* %2, align 4
  %54 = load i32, i32* %4, align 4
  %55 = call i32 (i8*, ...) @printf(i8* getelementptr inbounds ([11 x i8], [11 x i8]* @.str.3, i64 0, i64 0), i32 %53, i32 %54)
  %56 = load i32, i32* %4, align 4
  store i32 %56, i32* %2, align 4
  %57 = load i32, i32* %2, align 4
  %58 = srem i32 %57, 2
  store i32 %58, i32* %3, align 4
  br label %41

59:                                               ; preds = %47
  br label %19

60:                                               ; preds = %19
  %61 = call i32 (i8*, ...) @printf(i8* getelementptr inbounds ([4 x i8], [4 x i8]* @.str.1, i64 0, i64 0))
  br label %62

62:                                               ; preds = %60, %16
  ret i32 0
}

declare dso_local i32 @__isoc99_scanf(i8*, ...) #1

declare dso_local i32 @printf(i8*, ...) #1


!llvm.module.flags = !{!0}
!llvm.ident = !{!1}

!0 = !{i32 1, !"wchar_size", i32 4}
!1 = !{!"clang version 10.0.0-4ubuntu1 "}
